target datalayout = "e-m:e-p270:32:32-p271:32:32-p272:64:64-i64:64-i128:128-f80:128-n8:16:32:64-S128"
target triple = "x86_64-pc-linux-gnu"

%struct.AVChannelLayout = type { i32, i32, %union.anon.0, ptr }
%union.anon.0 = type { i64 }
%struct.AVCodecContext = type { ptr, i32, i32, ptr, i32, i32, ptr, ptr, ptr, i64, i32, i32, ptr, i32, %struct.AVRational, %struct.AVRational, %struct.AVRational, i32, i32, i32, i32, i32, %struct.AVRational, i32, i32, i32, i32, i32, i32, i32, i32, i32, i32, i32, ptr, ptr, i32, float, float, float, float, float, float, float, float, float, i32, i32, i32, i32, i32, i32, i32, i32, i32, i32, i32, i32, ptr, ptr, ptr, i32, i32, i32, i32, i32, i32, i32, i32, i32, i32, %struct.AVChannelLayout, i32, i32, i32, i32, i32, i32, i32, i32, ptr, i32, i32, i32, float, float, i32, i32, i32, i32, i32, ptr, i64, i64, float, float, i32, i32, ptr, ptr, i32, i32, i32, i32, i32, ptr, ptr, ptr, ptr, i32, i32, [8 x i64], i32, i32, i32, i32, i32, i32, i32, ptr, ptr, i32, i32, i32, i32, i32, i32, i32, i32, i32, i32, ptr, ptr, i32, i32, ptr, ptr, ptr, ptr, i32, i32, i64, i32, i32, i64, ptr, i64, ptr, i32, ptr, i32 }
%struct.AVRational = type { i32, i32 }
%struct.CinAudioContext = type { i32, i32 }
%struct.AVPacket = type { ptr, i64, i64, ptr, i32, i32, i32, ptr, i32, i64, i64, ptr, ptr, %struct.AVRational }
%struct.AVFrame = type { [8 x ptr], [8 x i32], ptr, i32, i32, i32, i32, i32, %struct.AVRational, i64, i64, %struct.AVRational, i32, ptr, i32, i32, [8 x ptr], ptr, i32, ptr, i32, i32, i32, i32, i32, i32, i32, i64, ptr, i32, ptr, ptr, i64, i64, i64, i64, ptr, %struct.AVChannelLayout, i64 }
%union.anon.1 = type { i32 }

; Function Attrs: alwaysinline nounwind willreturn memory(none) uwtable
define internal signext i16 @av_clip_int16_c(i32 noundef %0) #6 {
  %2 = alloca i16, align 2
  %3 = alloca i32, align 4
  store i32 %0, ptr %3, align 4, !tbaa !40
  %4 = load i32, ptr %3, align 4, !tbaa !40
  %5 = add i32 %4, 32768
  %6 = and i32 %5, -65536
  %7 = icmp ne i32 %6, 0
  br i1 %7, label %8, label %13

8:                                                ; preds = %1
  %9 = load i32, ptr %3, align 4, !tbaa !40
  %10 = ashr i32 %9, 31
  %11 = xor i32 %10, 32767
  %12 = trunc i32 %11 to i16
  store i16 %12, ptr %2, align 2
  br label %16

13:                                               ; preds = %1
  %14 = load i32, ptr %3, align 4, !tbaa !40
  %15 = trunc i32 %14 to i16
  store i16 %15, ptr %2, align 2
  br label %16

16:                                               ; preds = %13, %8
  %17 = load i16, ptr %2, align 2
  ret i16 %17
}

; Function Attrs: inlinehint nounwind willreturn memory(none) uwtable
define internal i32 @sign_extend(i32 noundef %0, i32 noundef %1) #5 {
  %3 = alloca i32, align 4
  %4 = alloca i32, align 4
  %5 = alloca i32, align 4
  %6 = alloca %union.anon.1, align 4
  store i32 %0, ptr %3, align 4, !tbaa !40
  store i32 %1, ptr %4, align 4, !tbaa !40
  call void @llvm.lifetime.start.p0(i64 4, ptr %5) #7
  %7 = load i32, ptr %4, align 4, !tbaa !40
  %8 = zext i32 %7 to i64
  %9 = sub i64 32, %8
  %10 = trunc i64 %9 to i32
  store i32 %10, ptr %5, align 4, !tbaa !40
  call void @llvm.lifetime.start.p0(i64 4, ptr %6) #7
  %11 = load i32, ptr %3, align 4, !tbaa !40
  %12 = load i32, ptr %5, align 4, !tbaa !40
  %13 = shl i32 %11, %12
  store i32 %13, ptr %6, align 4, !tbaa !37
  %14 = load i32, ptr %6, align 4, !tbaa !37
  %15 = load i32, ptr %5, align 4, !tbaa !40
  %16 = ashr i32 %14, %15
  call void @llvm.lifetime.end.p0(i64 4, ptr %6) #7
  call void @llvm.lifetime.end.p0(i64 4, ptr %5) #7
  ret i32 %16
}

; Function Attrs: nounwind uwtable
define internal i32 @cinaudio_decode_frame(ptr noundef %0, ptr noundef %1, ptr noundef %2, ptr noundef %3) #1 {
  %5 = alloca i32, align 4
  %6 = alloca ptr, align 8
  %7 = alloca ptr, align 8
  %8 = alloca ptr, align 8
  %9 = alloca ptr, align 8
  %10 = alloca ptr, align 8
  %11 = alloca ptr, align 8
  %12 = alloca ptr, align 8
  %13 = alloca ptr, align 8
  %14 = alloca i32, align 4
  %15 = alloca i32, align 4
  %16 = alloca i32, align 4
  store ptr %0, ptr %6, align 8, !tbaa !4
  store ptr %1, ptr %7, align 8, !tbaa !42
  store ptr %2, ptr %8, align 8, !tbaa !44
  store ptr %3, ptr %9, align 8, !tbaa !45
  call void @llvm.lifetime.start.p0(i64 8, ptr %10) #7
  %17 = load ptr, ptr %9, align 8, !tbaa !45
  %18 = getelementptr inbounds nuw %struct.AVPacket, ptr %17, i32 0, i32 3
  %19 = load ptr, ptr %18, align 8, !tbaa !47
  store ptr %19, ptr %10, align 8, !tbaa !49
  call void @llvm.lifetime.start.p0(i64 8, ptr %11) #7
  %20 = load ptr, ptr %6, align 8, !tbaa !4
  %21 = getelementptr inbounds nuw %struct.AVCodecContext, ptr %20, i32 0, i32 6
  %22 = load ptr, ptr %21, align 8, !tbaa !9
  store ptr %22, ptr %11, align 8, !tbaa !29
  call void @llvm.lifetime.start.p0(i64 8, ptr %12) #7
  %23 = load ptr, ptr %10, align 8, !tbaa !49
  %24 = load ptr, ptr %9, align 8, !tbaa !45
  %25 = getelementptr inbounds nuw %struct.AVPacket, ptr %24, i32 0, i32 4
  %26 = load i32, ptr %25, align 8, !tbaa !50
  %27 = sext i32 %26 to i64
  %28 = getelementptr inbounds i8, ptr %23, i64 %27
  store ptr %28, ptr %12, align 8, !tbaa !49
  call void @llvm.lifetime.start.p0(i64 8, ptr %13) #7
  call void @llvm.lifetime.start.p0(i64 4, ptr %14) #7
  call void @llvm.lifetime.start.p0(i64 4, ptr %15) #7
  %29 = load ptr, ptr %9, align 8, !tbaa !45
  %30 = getelementptr inbounds nuw %struct.AVPacket, ptr %29, i32 0, i32 4
  %31 = load i32, ptr %30, align 8, !tbaa !50
  %32 = load ptr, ptr %11, align 8, !tbaa !29
  %33 = getelementptr inbounds nuw %struct.CinAudioContext, ptr %32, i32 0, i32 0
  %34 = load i32, ptr %33, align 4, !tbaa !31
  %35 = sub nsw i32 %31, %34
  %36 = load ptr, ptr %7, align 8, !tbaa !42
  %37 = getelementptr inbounds nuw %struct.AVFrame, ptr %36, i32 0, i32 5
  store i32 %35, ptr %37, align 8, !tbaa !51
  %38 = load ptr, ptr %6, align 8, !tbaa !4
  %39 = load ptr, ptr %7, align 8, !tbaa !42
  %40 = call i32 @ff_get_buffer(ptr noundef %38, ptr noundef %39, i32 noundef 0)
  store i32 %40, ptr %15, align 4, !tbaa !40
  %41 = icmp slt i32 %40, 0
  br i1 %41, label %42, label %44

42:                                               ; preds = %4
  %43 = load i32, ptr %15, align 4, !tbaa !40
  store i32 %43, ptr %5, align 4
  store i32 1, ptr %16, align 4
  br label %99

44:                                               ; preds = %4
  %45 = load ptr, ptr %7, align 8, !tbaa !42
  %46 = getelementptr inbounds nuw %struct.AVFrame, ptr %45, i32 0, i32 0
  %47 = getelementptr inbounds [8 x ptr], ptr %46, i64 0, i64 0
  %48 = load ptr, ptr %47, align 8, !tbaa !49
  store ptr %48, ptr %13, align 8, !tbaa !56
  %49 = load ptr, ptr %11, align 8, !tbaa !29
  %50 = getelementptr inbounds nuw %struct.CinAudioContext, ptr %49, i32 0, i32 1
  %51 = load i32, ptr %50, align 4, !tbaa !33
  store i32 %51, ptr %14, align 4, !tbaa !40
  %52 = load ptr, ptr %11, align 8, !tbaa !29
  %53 = getelementptr inbounds nuw %struct.CinAudioContext, ptr %52, i32 0, i32 0
  %54 = load i32, ptr %53, align 4, !tbaa !31
  %55 = icmp ne i32 %54, 0
  br i1 %55, label %56, label %69

56:                                               ; preds = %44
  %57 = load ptr, ptr %11, align 8, !tbaa !29
  %58 = getelementptr inbounds nuw %struct.CinAudioContext, ptr %57, i32 0, i32 0
  store i32 0, ptr %58, align 4, !tbaa !31
  %59 = load ptr, ptr %10, align 8, !tbaa !49
  %60 = load i16, ptr %59, align 1, !tbaa !37
  %61 = zext i16 %60 to i32
  %62 = call i32 @sign_extend(i32 noundef %61, i32 noundef 16) #8
  store i32 %62, ptr %14, align 4, !tbaa !40
  %63 = load ptr, ptr %10, align 8, !tbaa !49
  %64 = getelementptr inbounds i8, ptr %63, i64 2
  store ptr %64, ptr %10, align 8, !tbaa !49
  %65 = load i32, ptr %14, align 4, !tbaa !40
  %66 = trunc i32 %65 to i16
  %67 = load ptr, ptr %13, align 8, !tbaa !56
  %68 = getelementptr inbounds nuw i16, ptr %67, i32 1
  store ptr %68, ptr %13, align 8, !tbaa !56
  store i16 %66, ptr %67, align 2, !tbaa !57
  br label %69

69:                                               ; preds = %56, %44
  br label %70

70:                                               ; preds = %74, %69
  %71 = load ptr, ptr %10, align 8, !tbaa !49
  %72 = load ptr, ptr %12, align 8, !tbaa !49
  %73 = icmp ult ptr %71, %72
  br i1 %73, label %74, label %91

74:                                               ; preds = %70
  %75 = load ptr, ptr %10, align 8, !tbaa !49
  %76 = getelementptr inbounds nuw i8, ptr %75, i32 1
  store ptr %76, ptr %10, align 8, !tbaa !49
  %77 = load i8, ptr %75, align 1, !tbaa !37
  %78 = zext i8 %77 to i64
  %79 = getelementptr inbounds nuw [256 x i16], ptr @cinaudio_delta16_table, i64 0, i64 %78
  %80 = load i16, ptr %79, align 2, !tbaa !57
  %81 = sext i16 %80 to i32
  %82 = load i32, ptr %14, align 4, !tbaa !40
  %83 = add nsw i32 %82, %81
  store i32 %83, ptr %14, align 4, !tbaa !40
  %84 = load i32, ptr %14, align 4, !tbaa !40
  %85 = call signext i16 @av_clip_int16_c(i32 noundef %84) #8
  %86 = sext i16 %85 to i32
  store i32 %86, ptr %14, align 4, !tbaa !40
  %87 = load i32, ptr %14, align 4, !tbaa !40
  %88 = trunc i32 %87 to i16
  %89 = load ptr, ptr %13, align 8, !tbaa !56
  %90 = getelementptr inbounds nuw i16, ptr %89, i32 1
  store ptr %90, ptr %13, align 8, !tbaa !56
  store i16 %88, ptr %89, align 2, !tbaa !57
  br label %70, !llvm.loop !59

91:                                               ; preds = %70
  %92 = load i32, ptr %14, align 4, !tbaa !40
  %93 = load ptr, ptr %11, align 8, !tbaa !29
  %94 = getelementptr inbounds nuw %struct.CinAudioContext, ptr %93, i32 0, i32 1
  store i32 %92, ptr %94, align 4, !tbaa !33
  %95 = load ptr, ptr %8, align 8, !tbaa !44
  store i32 1, ptr %95, align 4, !tbaa !40
  %96 = load ptr, ptr %9, align 8, !tbaa !45
  %97 = getelementptr inbounds nuw %struct.AVPacket, ptr %96, i32 0, i32 4
  %98 = load i32, ptr %97, align 8, !tbaa !50
  store i32 %98, ptr %5, align 4
  store i32 1, ptr %16, align 4
  br label %99

99:                                               ; preds = %91, %42
  call void @llvm.lifetime.end.p0(i64 4, ptr %15) #7
  call void @llvm.lifetime.end.p0(i64 4, ptr %14) #7
  call void @llvm.lifetime.end.p0(i64 8, ptr %13) #7
  call void @llvm.lifetime.end.p0(i64 8, ptr %12) #7
  call void @llvm.lifetime.end.p0(i64 8, ptr %11) #7
  call void @llvm.lifetime.end.p0(i64 8, ptr %10) #7
  %100 = load i32, ptr %5, align 4
  ret i32 %100
}