; Function Attrs: nounwind uwtable
define internal i32 @cinaudio_decode_frame(ptr noundef %0, ptr noundef initializes((112, 116)) %1, ptr noundef writeonly captures(none) %2, ptr noundef readonly captures(none) %3) #1 {
  %5 = getelementptr inbounds nuw i8, ptr %3, i64 24
  %6 = load ptr, ptr %5, align 8, !tbaa !34
  %7 = getelementptr inbounds nuw i8, ptr %0, i64 32
  %8 = load ptr, ptr %7, align 8, !tbaa !4
  %9 = getelementptr inbounds nuw i8, ptr %3, i64 32
  %10 = load i32, ptr %9, align 8, !tbaa !36
  %11 = sext i32 %10 to i64
  %12 = getelementptr inbounds i8, ptr %6, i64 %11
  %13 = load i32, ptr %8, align 4, !tbaa !27
  %14 = sub nsw i32 %10, %13
  %15 = getelementptr inbounds nuw i8, ptr %1, i64 112
  store i32 %14, ptr %15, align 8, !tbaa !37
  %16 = tail call i32 @ff_get_buffer(ptr noundef %0, ptr noundef %1, i32 noundef 0) #4
  %17 = icmp slt i32 %16, 0
  br i1 %17, label %42, label %18

18:                                               ; preds = %4
  %19 = load ptr, ptr %1, align 8, !tbaa !42
  %20 = getelementptr inbounds nuw i8, ptr %8, i64 4
  %21 = load i32, ptr %20, align 4, !tbaa !29
  %22 = load i32, ptr %8, align 4, !tbaa !27
  %.not = icmp eq i32 %22, 0
  br i1 %.not, label %28, label %23

23:                                               ; preds = %18
  store i32 0, ptr %8, align 4, !tbaa !27
  %24 = load i16, ptr %6, align 1, !tbaa !32
  %25 = sext i16 %24 to i32
  %26 = getelementptr inbounds nuw i8, ptr %6, i64 2
  %27 = getelementptr inbounds nuw i8, ptr %19, i64 2
  store i16 %24, ptr %19, align 2, !tbaa !43
  br label %28

28:                                               ; preds = %23, %18
  %.032 = phi ptr [ %26, %23 ], [ %6, %18 ]
  %.030 = phi ptr [ %27, %23 ], [ %19, %18 ]
  %.029 = phi i32 [ %25, %23 ], [ %21, %18 ]
  %29 = icmp ult ptr %.032, %12
  br i1 %29, label %.lr.ph, label %._crit_edge

.lr.ph:                                           ; preds = %28, %.lr.ph
  %.137 = phi i32 [ %38, %.lr.ph ], [ %.029, %28 ]
  %.13136 = phi ptr [ %39, %.lr.ph ], [ %.030, %28 ]
  %.13335 = phi ptr [ %30, %.lr.ph ], [ %.032, %28 ]
  %30 = getelementptr inbounds nuw i8, ptr %.13335, i64 1
  %31 = load i8, ptr %.13335, align 1, !tbaa !32
  %32 = zext i8 %31 to i64
  %33 = getelementptr inbounds nuw [256 x i16], ptr @cinaudio_delta16_table, i64 0, i64 %32
  %34 = load i16, ptr %33, align 2, !tbaa !43
  %35 = sext i16 %34 to i32
  %36 = add nsw i32 %.137, %35
  %37 = tail call i32 @llvm.smax.i32(i32 %36, i32 -32768)
  %38 = tail call i32 @llvm.smin.i32(i32 %37, i32 32767)
  %.0.i = trunc nsw i32 %38 to i16
  %39 = getelementptr inbounds nuw i8, ptr %.13136, i64 2
  store i16 %.0.i, ptr %.13136, align 2, !tbaa !43
  %40 = icmp ult ptr %30, %12
  br i1 %40, label %.lr.ph, label %._crit_edge, !llvm.loop !45

._crit_edge:                                      ; preds = %.lr.ph, %28
  %.1.lcssa = phi i32 [ %.029, %28 ], [ %38, %.lr.ph ]
  store i32 %.1.lcssa, ptr %20, align 4, !tbaa !29
  store i32 1, ptr %2, align 4, !tbaa !31
  %41 = load i32, ptr %9, align 8, !tbaa !36
  br label %42

42:                                               ; preds = %4, %._crit_edge
  %.0 = phi i32 [ %41, %._crit_edge ], [ %16, %4 ]
  ret i32 %.0
}